; Function Attrs: mustprogress nounwind uwtable
define internal void @_ZN4node9inspector8protocol12_GLOBAL__N_120InspectorTraceWriter16AppendTraceEventEPN2v88platform7tracing11TraceObjectE(ptr noundef nonnull align 8 dereferenceable(416) %this, ptr noundef %trace_event) unnamed_addr #4 align 2 {
entry:
  %ref.tmp = alloca %"class.std::__cxx11::basic_string", align 8
  %ref.tmp3 = alloca %"class.std::allocator.37", align 1
  %json_writer_ = getelementptr inbounds i8, ptr %this, i64 8
  %0 = load ptr, ptr %json_writer_, align 8
  %cmp.i.not = icmp eq ptr %0, null
  br i1 %cmp.i.not, label %if.then, label %if.end

if.then:                                          ; preds = %entry
  %stream_ = getelementptr inbounds i8, ptr %this, i64 16
  call void @_ZNSaIcEC1Ev(ptr noundef nonnull align 1 dereferenceable(1) %ref.tmp3) #13
  %call.i = call noundef ptr @_ZNSt7__cxx1112basic_stringIcSt11char_traitsIcESaIcEE13_M_local_dataEv(ptr noundef nonnull align 8 dereferenceable(32) %ref.tmp) #13
  call void @_ZNSt7__cxx1112basic_stringIcSt11char_traitsIcESaIcEE12_Alloc_hiderC1EPcRKS3_(ptr noundef nonnull align 8 dereferenceable(8) %ref.tmp, ptr noundef %call.i, ptr noundef nonnull align 1 dereferenceable(1) %ref.tmp3) #13
  call void @_ZNSt7__cxx1112basic_stringIcSt11char_traitsIcESaIcEE12_M_constructIPKcEEvT_S8_St20forward_iterator_tag(ptr noundef nonnull align 8 dereferenceable(32) %ref.tmp, ptr noundef nonnull @.str.24, ptr noundef nonnull getelementptr inbounds ([6 x i8], ptr @.str.24, i64 0, i64 5))
  %call4 = call noundef ptr @_ZN2v88platform7tracing11TraceWriter21CreateJSONTraceWriterERSoRKNSt7__cxx1112basic_stringIcSt11char_traitsIcESaIcEEE(ptr noundef nonnull align 8 dereferenceable(8) %stream_, ptr noundef nonnull align 8 dereferenceable(32) %ref.tmp) #13
  %1 = load ptr, ptr %json_writer_, align 8
  store ptr %call4, ptr %json_writer_, align 8
  %tobool.not.i.i = icmp eq ptr %1, null
  br i1 %tobool.not.i.i, label %_ZNSt10unique_ptrIN2v88platform7tracing11TraceWriterESt14default_deleteIS3_EE5resetEPS3_.exit, label %_ZNKSt14default_deleteIN2v88platform7tracing11TraceWriterEEclEPS3_.exit.i.i

_ZNKSt14default_deleteIN2v88platform7tracing11TraceWriterEEclEPS3_.exit.i.i: ; preds = %if.then
  %vtable.i.i.i = load ptr, ptr %1, align 8
  %vfn.i.i.i = getelementptr inbounds i8, ptr %vtable.i.i.i, i64 8
  %2 = load ptr, ptr %vfn.i.i.i, align 8
  call void %2(ptr noundef nonnull align 8 dereferenceable(8) %1) #13
  br label %_ZNSt10unique_ptrIN2v88platform7tracing11TraceWriterESt14default_deleteIS3_EE5resetEPS3_.exit

_ZNSt10unique_ptrIN2v88platform7tracing11TraceWriterESt14default_deleteIS3_EE5resetEPS3_.exit: ; preds = %if.then, %_ZNKSt14default_deleteIN2v88platform7tracing11TraceWriterEEclEPS3_.exit.i.i
  call void @_ZNSt7__cxx1112basic_stringIcSt11char_traitsIcESaIcEED1Ev(ptr noundef nonnull align 8 dereferenceable(32) %ref.tmp) #13
  call void @_ZNSaIcED1Ev(ptr noundef nonnull align 1 dereferenceable(1) %ref.tmp3) #13
  %.pre = load ptr, ptr %json_writer_, align 8
  br label %if.end

if.end:                                           ; preds = %_ZNSt10unique_ptrIN2v88platform7tracing11TraceWriterESt14default_deleteIS3_EE5resetEPS3_.exit, %entry
  %3 = phi ptr [ %.pre, %_ZNSt10unique_ptrIN2v88platform7tracing11TraceWriterESt14default_deleteIS3_EE5resetEPS3_.exit ], [ %0, %entry ]
  %vtable = load ptr, ptr %3, align 8
  %vfn = getelementptr inbounds i8, ptr %vtable, i64 16
  %4 = load ptr, ptr %vfn, align 8
  call void %4(ptr noundef nonnull align 8 dereferenceable(8) %3, ptr noundef %trace_event) #13
  ret void
}